; Function Attrs: nounwind uwtable
define internal fastcc range(i64 0, 63) i64 @cookiehash(ptr noundef %0) unnamed_addr #0 {
  %.not = icmp eq ptr %0, null
  br i1 %.not, label %cookie_hash_domain.exit, label %2

2:                                                ; preds = %1
  %3 = tail call zeroext i1 @Curl_host_is_ipnum(ptr noundef nonnull %0) #13
  br i1 %3, label %cookie_hash_domain.exit, label %4

4:                                                ; preds = %2
  %5 = tail call i64 @strlen(ptr noundef nonnull dereferenceable(1) %0) #14
  %6 = tail call ptr @memrchr(ptr noundef nonnull %0, i32 noundef 46, i64 noundef %5) #14
  %.not.i = icmp eq ptr %6, null
  br i1 %.not.i, label %get_top_domain.exit, label %7

7:                                                ; preds = %4
  %8 = ptrtoint ptr %6 to i64
  %9 = ptrtoint ptr %0 to i64
  %10 = sub i64 %8, %9
  %11 = tail call ptr @memrchr(ptr noundef nonnull %0, i32 noundef 46, i64 noundef %10) #14
  %.not22.i = icmp eq ptr %11, null
  br i1 %.not22.i, label %get_top_domain.exit, label %12

12:                                               ; preds = %7
  %13 = getelementptr inbounds nuw i8, ptr %11, i64 1
  %14 = ptrtoint ptr %13 to i64
  %.neg.i = add i64 %5, %9
  %15 = sub i64 %.neg.i, %14
  br label %get_top_domain.exit

get_top_domain.exit:                              ; preds = %4, %7, %12
  %.017.i = phi ptr [ %13, %12 ], [ null, %7 ], [ null, %4 ]
  %.0.i = phi i64 [ %15, %12 ], [ %5, %7 ], [ %5, %4 ]
  %.not23.i = icmp eq ptr %.017.i, null
  %16 = select i1 %.not23.i, ptr %0, ptr %.017.i
  %17 = getelementptr inbounds nuw i8, ptr %16, i64 %.0.i
  %.not.i5 = icmp eq i64 %.0.i, 0
  br i1 %.not.i5, label %cookie_hash_domain.exit, label %.lr.ph.i

.lr.ph.i:                                         ; preds = %get_top_domain.exit, %.lr.ph.i
  %.011.i = phi ptr [ %18, %.lr.ph.i ], [ %16, %get_top_domain.exit ]
  %.0910.i = phi i64 [ %23, %.lr.ph.i ], [ 5381, %get_top_domain.exit ]
  %18 = getelementptr inbounds nuw i8, ptr %.011.i, i64 1
  %19 = load i8, ptr %.011.i, align 1, !tbaa !92
  %20 = tail call signext i8 @Curl_raw_toupper(i8 noundef signext %19) #13
  %21 = sext i8 %20 to i64
  %22 = mul i64 %.0910.i, 33
  %23 = xor i64 %22, %21
  %24 = icmp ult ptr %18, %17
  br i1 %24, label %.lr.ph.i, label %._crit_edge.loopexit.i, !llvm.loop !120

._crit_edge.loopexit.i:                           ; preds = %.lr.ph.i
  %25 = urem i64 %23, 63
  br label %cookie_hash_domain.exit

cookie_hash_domain.exit:                          ; preds = %._crit_edge.loopexit.i, %get_top_domain.exit, %1, %2
  %.0 = phi i64 [ 0, %2 ], [ 0, %1 ], [ 26, %get_top_domain.exit ], [ %25, %._crit_edge.loopexit.i ]
  ret i64 %.0
}